target datalayout = "e-m:e-p270:32:32-p271:32:32-p272:64:64-i64:64-i128:128-f80:128-n8:16:32:64-S128"
target triple = "x86_64-pc-linux-gnu"

@.str.7639 = private unnamed_addr constant [20 x i8] c"RSTD < -15391Ts (0)\00", align 1
@.str.7640 = private unnamed_addr constant [27 x i8] c"-%uTs <= RSTD < -%uTs (%u)\00", align 1
@.str.7641 = private unnamed_addr constant [27 x i8] c"-1Ts <= RSTD <= 0Ts (6355)\00", align 1
@.str.7642 = private unnamed_addr constant [25 x i8] c"%uTs < RSTD <= %uTs (%u)\00", align 1
@.str.7643 = private unnamed_addr constant [23 x i8] c"15391Ts < RSTD (12711)\00", align 1

; Function Attrs: null_pointer_is_valid sspstrong uwtable
define internal void @lpp_rstd_fmt(ptr noundef %0, i32 noundef %1) #0 {
  %3 = alloca ptr, align 8
  %4 = alloca i32, align 4
  store ptr %0, ptr %3, align 8
  store i32 %1, ptr %4, align 4
  %5 = load i32, ptr %4, align 4
  %6 = icmp eq i32 %5, 0
  br i1 %6, label %7, label %12

7:                                                ; preds = %2
  %8 = load ptr, ptr %3, align 8
  %9 = load ptr, ptr %3, align 8
  %10 = call i64 @llvm.objectsize.i64.p0(ptr %9, i1 false, i1 true, i1 true)
  %11 = call i32 (ptr, i64, i32, i64, ptr, ...) @__snprintf_chk(ptr noundef %8, i64 noundef 240, i32 noundef 2, i64 noundef %10, ptr noundef @.str.7639)
  br label %88

12:                                               ; preds = %2
  %13 = load i32, ptr %4, align 4
  %14 = icmp ult i32 %13, 2260
  br i1 %14, label %15, label %28

15:                                               ; preds = %12
  %16 = load ptr, ptr %3, align 8
  %17 = load ptr, ptr %3, align 8
  %18 = call i64 @llvm.objectsize.i64.p0(ptr %17, i1 false, i1 true, i1 true)
  %19 = load i32, ptr %4, align 4
  %20 = sub i32 %19, 1
  %21 = mul i32 5, %20
  %22 = sub i32 15391, %21
  %23 = load i32, ptr %4, align 4
  %24 = mul i32 5, %23
  %25 = sub i32 15391, %24
  %26 = load i32, ptr %4, align 4
  %27 = call i32 (ptr, i64, i32, i64, ptr, ...) @__snprintf_chk(ptr noundef %16, i64 noundef 240, i32 noundef 2, i64 noundef %18, ptr noundef @.str.7640, i32 noundef %22, i32 noundef %25, i32 noundef %26)
  br label %87

28:                                               ; preds = %12
  %29 = load i32, ptr %4, align 4
  %30 = icmp ult i32 %29, 6355
  br i1 %30, label %31, label %41

31:                                               ; preds = %28
  %32 = load ptr, ptr %3, align 8
  %33 = load ptr, ptr %3, align 8
  %34 = call i64 @llvm.objectsize.i64.p0(ptr %33, i1 false, i1 true, i1 true)
  %35 = load i32, ptr %4, align 4
  %36 = sub i32 6356, %35
  %37 = load i32, ptr %4, align 4
  %38 = sub i32 6355, %37
  %39 = load i32, ptr %4, align 4
  %40 = call i32 (ptr, i64, i32, i64, ptr, ...) @__snprintf_chk(ptr noundef %32, i64 noundef 240, i32 noundef 2, i64 noundef %34, ptr noundef @.str.7640, i32 noundef %36, i32 noundef %38, i32 noundef %39)
  br label %86

41:                                               ; preds = %28
  %42 = load i32, ptr %4, align 4
  %43 = icmp eq i32 %42, 6355
  br i1 %43, label %44, label %49

44:                                               ; preds = %41
  %45 = load ptr, ptr %3, align 8
  %46 = load ptr, ptr %3, align 8
  %47 = call i64 @llvm.objectsize.i64.p0(ptr %46, i1 false, i1 true, i1 true)
  %48 = call i32 (ptr, i64, i32, i64, ptr, ...) @__snprintf_chk(ptr noundef %45, i64 noundef 240, i32 noundef 2, i64 noundef %47, ptr noundef @.str.7641)
  br label %85

49:                                               ; preds = %41
  %50 = load i32, ptr %4, align 4
  %51 = icmp ult i32 %50, 10452
  br i1 %51, label %52, label %62

52:                                               ; preds = %49
  %53 = load ptr, ptr %3, align 8
  %54 = load ptr, ptr %3, align 8
  %55 = call i64 @llvm.objectsize.i64.p0(ptr %54, i1 false, i1 true, i1 true)
  %56 = load i32, ptr %4, align 4
  %57 = sub i32 %56, 6356
  %58 = load i32, ptr %4, align 4
  %59 = sub i32 %58, 6355
  %60 = load i32, ptr %4, align 4
  %61 = call i32 (ptr, i64, i32, i64, ptr, ...) @__snprintf_chk(ptr noundef %53, i64 noundef 240, i32 noundef 2, i64 noundef %55, ptr noundef @.str.7642, i32 noundef %57, i32 noundef %59, i32 noundef %60)
  br label %84

62:                                               ; preds = %49
  %63 = load i32, ptr %4, align 4
  %64 = icmp ult i32 %63, 12711
  br i1 %64, label %65, label %78

65:                                               ; preds = %62
  %66 = load ptr, ptr %3, align 8
  %67 = load ptr, ptr %3, align 8
  %68 = call i64 @llvm.objectsize.i64.p0(ptr %67, i1 false, i1 true, i1 true)
  %69 = load i32, ptr %4, align 4
  %70 = sub i32 %69, 1
  %71 = mul i32 5, %70
  %72 = sub i32 %71, 48159
  %73 = load i32, ptr %4, align 4
  %74 = mul i32 5, %73
  %75 = sub i32 %74, 48159
  %76 = load i32, ptr %4, align 4
  %77 = call i32 (ptr, i64, i32, i64, ptr, ...) @__snprintf_chk(ptr noundef %66, i64 noundef 240, i32 noundef 2, i64 noundef %68, ptr noundef @.str.7642, i32 noundef %72, i32 noundef %75, i32 noundef %76)
  br label %83

78:                                               ; preds = %62
  %79 = load ptr, ptr %3, align 8
  %80 = load ptr, ptr %3, align 8
  %81 = call i64 @llvm.objectsize.i64.p0(ptr %80, i1 false, i1 true, i1 true)
  %82 = call i32 (ptr, i64, i32, i64, ptr, ...) @__snprintf_chk(ptr noundef %79, i64 noundef 240, i32 noundef 2, i64 noundef %81, ptr noundef @.str.7643)
  br label %83

83:                                               ; preds = %78, %65
  br label %84

84:                                               ; preds = %83, %52
  br label %85

85:                                               ; preds = %84, %44
  br label %86

86:                                               ; preds = %85, %31
  br label %87

87:                                               ; preds = %86, %15
  br label %88

88:                                               ; preds = %87, %7
  ret void
}