; Function Attrs: nofree null_pointer_is_valid sspstrong uwtable
define internal void @lpp_rstd_fmt(ptr noundef %0, i32 noundef %1) #3 {
  %3 = icmp eq i32 %1, 0
  br i1 %3, label %4, label %6

4:                                                ; preds = %2
  %5 = tail call i32 (ptr, i64, i32, i64, ptr, ...) @__snprintf_chk(ptr noundef %0, i64 noundef 240, i32 noundef 2, i64 noundef -1, ptr noundef nonnull @.str.7639)
  br label %37

6:                                                ; preds = %2
  %7 = icmp ult i32 %1, 2260
  br i1 %7, label %8, label %12

8:                                                ; preds = %6
  %.neg = mul nsw i32 %1, -5
  %9 = add nsw i32 %.neg, 15396
  %10 = add nsw i32 %.neg, 15391
  %11 = tail call i32 (ptr, i64, i32, i64, ptr, ...) @__snprintf_chk(ptr noundef %0, i64 noundef 240, i32 noundef 2, i64 noundef -1, ptr noundef nonnull @.str.7640, i32 noundef %9, i32 noundef %10, i32 noundef %1)
  br label %37

12:                                               ; preds = %6
  %13 = icmp ult i32 %1, 6355
  br i1 %13, label %14, label %18

14:                                               ; preds = %12
  %15 = sub nuw nsw i32 6356, %1
  %16 = sub nuw nsw i32 6355, %1
  %17 = tail call i32 (ptr, i64, i32, i64, ptr, ...) @__snprintf_chk(ptr noundef %0, i64 noundef 240, i32 noundef 2, i64 noundef -1, ptr noundef nonnull @.str.7640, i32 noundef %15, i32 noundef %16, i32 noundef %1)
  br label %37

18:                                               ; preds = %12
  %19 = icmp eq i32 %1, 6355
  br i1 %19, label %20, label %22

20:                                               ; preds = %18
  %21 = tail call i32 (ptr, i64, i32, i64, ptr, ...) @__snprintf_chk(ptr noundef %0, i64 noundef 240, i32 noundef 2, i64 noundef -1, ptr noundef nonnull @.str.7641)
  br label %37

22:                                               ; preds = %18
  %23 = icmp ult i32 %1, 10452
  br i1 %23, label %24, label %28

24:                                               ; preds = %22
  %25 = add nsw i32 %1, -6356
  %26 = add nsw i32 %1, -6355
  %27 = tail call i32 (ptr, i64, i32, i64, ptr, ...) @__snprintf_chk(ptr noundef %0, i64 noundef 240, i32 noundef 2, i64 noundef -1, ptr noundef nonnull @.str.7642, i32 noundef %25, i32 noundef %26, i32 noundef %1)
  br label %37

28:                                               ; preds = %22
  %29 = icmp ult i32 %1, 12711
  br i1 %29, label %30, label %35

30:                                               ; preds = %28
  %31 = mul nuw nsw i32 %1, 5
  %32 = add nsw i32 %31, -48164
  %33 = add nsw i32 %31, -48159
  %34 = tail call i32 (ptr, i64, i32, i64, ptr, ...) @__snprintf_chk(ptr noundef %0, i64 noundef 240, i32 noundef 2, i64 noundef -1, ptr noundef nonnull @.str.7642, i32 noundef %32, i32 noundef %33, i32 noundef %1)
  br label %37

35:                                               ; preds = %28
  %36 = tail call i32 (ptr, i64, i32, i64, ptr, ...) @__snprintf_chk(ptr noundef %0, i64 noundef 240, i32 noundef 2, i64 noundef -1, ptr noundef nonnull @.str.7643)
  br label %37

37:                                               ; preds = %8, %20, %30, %35, %24, %14, %4
  ret void
}